target datalayout = "e-m:e-p270:32:32-p271:32:32-p272:64:64-i64:64-i128:128-f80:128-n8:16:32:64-S128"
target triple = "x86_64-pc-linux-gnu"

; Function Attrs: nounwind uwtable
define internal void @lfe_x96_float_c(ptr noundef %0, ptr noundef %1, ptr noundef %2, i64 noundef %3) #1 {
  %5 = alloca ptr, align 8
  %6 = alloca ptr, align 8
  %7 = alloca ptr, align 8
  %8 = alloca i64, align 8
  %9 = alloca float, align 4
  %10 = alloca i32, align 4
  %11 = alloca float, align 4
  %12 = alloca float, align 4
  store ptr %0, ptr %5, align 8, !tbaa !42
  store ptr %1, ptr %6, align 8, !tbaa !42
  store ptr %2, ptr %7, align 8, !tbaa !42
  store i64 %3, ptr %8, align 8, !tbaa !32
  call void @llvm.lifetime.start.p0(i64 4, ptr %9) #7
  %13 = load ptr, ptr %7, align 8, !tbaa !42
  %14 = load float, ptr %13, align 4, !tbaa !44
  store float %14, ptr %9, align 4, !tbaa !44
  call void @llvm.lifetime.start.p0(i64 4, ptr %10) #7
  store i32 0, ptr %10, align 4, !tbaa !34
  br label %15

15:                                               ; preds = %48, %4
  %16 = load i32, ptr %10, align 4, !tbaa !34
  %17 = sext i32 %16 to i64
  %18 = load i64, ptr %8, align 8, !tbaa !32
  %19 = icmp slt i64 %17, %18
  br i1 %19, label %20, label %51

20:                                               ; preds = %15
  call void @llvm.lifetime.start.p0(i64 4, ptr %11) #7
  %21 = load ptr, ptr %6, align 8, !tbaa !42
  %22 = load i32, ptr %10, align 4, !tbaa !34
  %23 = sext i32 %22 to i64
  %24 = getelementptr inbounds float, ptr %21, i64 %23
  %25 = load float, ptr %24, align 4, !tbaa !44
  %26 = load float, ptr %9, align 4, !tbaa !44
  %27 = fmul nsz float 7.500000e-01, %26
  %28 = call nsz float @llvm.fmuladd.f32(float 2.500000e-01, float %25, float %27)
  store float %28, ptr %11, align 4, !tbaa !44
  call void @llvm.lifetime.start.p0(i64 4, ptr %12) #7
  %29 = load ptr, ptr %6, align 8, !tbaa !42
  %30 = load i32, ptr %10, align 4, !tbaa !34
  %31 = sext i32 %30 to i64
  %32 = getelementptr inbounds float, ptr %29, i64 %31
  %33 = load float, ptr %32, align 4, !tbaa !44
  %34 = load float, ptr %9, align 4, !tbaa !44
  %35 = fmul nsz float 2.500000e-01, %34
  %36 = call nsz float @llvm.fmuladd.f32(float 7.500000e-01, float %33, float %35)
  store float %36, ptr %12, align 4, !tbaa !44
  %37 = load ptr, ptr %6, align 8, !tbaa !42
  %38 = load i32, ptr %10, align 4, !tbaa !34
  %39 = sext i32 %38 to i64
  %40 = getelementptr inbounds float, ptr %37, i64 %39
  %41 = load float, ptr %40, align 4, !tbaa !44
  store float %41, ptr %9, align 4, !tbaa !44
  %42 = load float, ptr %11, align 4, !tbaa !44
  %43 = load ptr, ptr %5, align 8, !tbaa !42
  %44 = getelementptr inbounds nuw float, ptr %43, i32 1
  store ptr %44, ptr %5, align 8, !tbaa !42
  store float %42, ptr %43, align 4, !tbaa !44
  %45 = load float, ptr %12, align 4, !tbaa !44
  %46 = load ptr, ptr %5, align 8, !tbaa !42
  %47 = getelementptr inbounds nuw float, ptr %46, i32 1
  store ptr %47, ptr %5, align 8, !tbaa !42
  store float %45, ptr %46, align 4, !tbaa !44
  call void @llvm.lifetime.end.p0(i64 4, ptr %12) #7
  call void @llvm.lifetime.end.p0(i64 4, ptr %11) #7
  br label %48

48:                                               ; preds = %20
  %49 = load i32, ptr %10, align 4, !tbaa !34
  %50 = add nsw i32 %49, 1
  store i32 %50, ptr %10, align 4, !tbaa !34
  br label %15, !llvm.loop !46

51:                                               ; preds = %15
  %52 = load float, ptr %9, align 4, !tbaa !44
  %53 = load ptr, ptr %7, align 8, !tbaa !42
  store float %52, ptr %53, align 4, !tbaa !44
  call void @llvm.lifetime.end.p0(i64 4, ptr %10) #7
  call void @llvm.lifetime.end.p0(i64 4, ptr %9) #7
  ret void
}