; Function Attrs: nofree norecurse nosync nounwind memory(argmem: readwrite) uwtable
define internal void @lfe_x96_float_c(ptr noundef writeonly captures(none) %0, ptr noundef readonly captures(none) %1, ptr noundef captures(none) %2, i64 noundef %3) #3 {
  %5 = load float, ptr %2, align 4, !tbaa !33
  %6 = icmp sgt i64 %3, 0
  br i1 %6, label %.lr.ph, label %._crit_edge

.lr.ph:                                           ; preds = %4, %.lr.ph
  %indvars.iv = phi i64 [ %indvars.iv.next, %.lr.ph ], [ 0, %4 ]
  %.022 = phi ptr [ %14, %.lr.ph ], [ %0, %4 ]
  %.01721 = phi float [ %8, %.lr.ph ], [ %5, %4 ]
  %7 = getelementptr inbounds nuw float, ptr %1, i64 %indvars.iv
  %8 = load float, ptr %7, align 4, !tbaa !33
  %9 = fmul nsz float %.01721, 7.500000e-01
  %10 = tail call nsz float @llvm.fmuladd.f32(float %8, float 2.500000e-01, float %9)
  %11 = fmul nsz float %.01721, 2.500000e-01
  %12 = tail call nsz float @llvm.fmuladd.f32(float %8, float 7.500000e-01, float %11)
  %13 = getelementptr inbounds nuw i8, ptr %.022, i64 4
  store float %10, ptr %.022, align 4, !tbaa !33
  %14 = getelementptr inbounds nuw i8, ptr %.022, i64 8
  store float %12, ptr %13, align 4, !tbaa !33
  %indvars.iv.next = add nuw nsw i64 %indvars.iv, 1
  %exitcond.not = icmp eq i64 %indvars.iv.next, %3
  br i1 %exitcond.not, label %._crit_edge, label %.lr.ph, !llvm.loop !38

._crit_edge:                                      ; preds = %.lr.ph, %4
  %.017.lcssa = phi float [ %5, %4 ], [ %8, %.lr.ph ]
  store float %.017.lcssa, ptr %2, align 4, !tbaa !33
  ret void
}